; Function Attrs: nounwind sspstrong uwtable
define hidden noundef i64 @rb_obj_methods(i32 noundef %0, ptr noundef readonly captures(none) %1, i64 noundef %2) local_unnamed_addr #0 {
  %or.cond.i = icmp ugt i32 %0, 1
  br i1 %or.cond.i, label %4, label %rb_check_arity.exit

4:                                                ; preds = %3
  tail call void @rb_error_arity(i32 noundef %0, i32 noundef 0, i32 noundef 1) #21
  unreachable

rb_check_arity.exit:                              ; preds = %3
  %5 = icmp eq i32 %0, 1
  br i1 %5, label %6, label %11

6:                                                ; preds = %rb_check_arity.exit
  %7 = load i64, ptr %1, align 8, !tbaa !29
  %8 = and i64 %7, -5
  %.not = icmp eq i64 %8, 0
  br i1 %.not, label %9, label %11

9:                                                ; preds = %6
  %10 = tail call i64 @rb_obj_singleton_methods(i32 noundef 1, ptr noundef nonnull %1, i64 noundef %2)
  br label %28

11:                                               ; preds = %6, %rb_check_arity.exit
  %12 = icmp eq i64 %2, 0
  %13 = and i64 %2, 7
  %14 = icmp ne i64 %13, 0
  %15 = or i1 %12, %14
  br i1 %15, label %19, label %16

16:                                               ; preds = %11
  %17 = inttoptr i64 %2 to ptr
  %18 = getelementptr inbounds nuw i8, ptr %17, i64 8
  br label %rb_class_of.exit

19:                                               ; preds = %11
  switch i64 %2, label %22 [
    i64 0, label %rb_class_of.exit
    i64 4, label %20
    i64 20, label %21
  ]

20:                                               ; preds = %19
  br label %rb_class_of.exit

21:                                               ; preds = %19
  br label %rb_class_of.exit

22:                                               ; preds = %19
  %23 = and i64 %2, 1
  %.not.i = icmp eq i64 %23, 0
  br i1 %.not.i, label %24, label %rb_class_of.exit

24:                                               ; preds = %22
  %25 = and i64 %2, 254
  %26 = icmp eq i64 %25, 12
  %spec.select.i = select i1 %26, ptr @rb_cSymbol, ptr @rb_cFloat
  br label %rb_class_of.exit

rb_class_of.exit:                                 ; preds = %16, %19, %20, %21, %22, %24
  %.0.in.i = phi ptr [ @rb_cNilClass, %20 ], [ @rb_cTrueClass, %21 ], [ %18, %16 ], [ @rb_cFalseClass, %19 ], [ @rb_cInteger, %22 ], [ %spec.select.i, %24 ]
  %.0.i = load i64, ptr %.0.in.i, align 8, !tbaa !29
  %27 = tail call fastcc i64 @class_instance_method_list(i32 noundef %0, ptr noundef %1, i64 noundef %.0.i, i32 noundef 1, ptr noundef nonnull @ins_methods_i)
  br label %28

28:                                               ; preds = %rb_class_of.exit, %9
  %.0 = phi i64 [ %27, %rb_class_of.exit ], [ %10, %9 ]
  ret i64 %.0
}